; Function Attrs: mustprogress nounwind uwtable
define dso_local { <2 x float>, <2 x float> } @_ZNK4pbrt12DistantLight3PhiENS_18SampledWavelengthsE(ptr noundef nonnull readonly align 8 captures(none) dereferenceable(180) %0, ptr noundef readonly byval(%"class.pbrt::SampledWavelengths") align 8 captures(none) %1) local_unnamed_addr #11 align 2 {
  %3 = alloca %"class.pbrt::SampledSpectrum", align 8
  %4 = alloca %"class.pbrt::SampledSpectrum", align 8
  %5 = alloca %"class.pbrt::SampledSpectrum", align 8
  %6 = alloca %"class.pbrt::SampledSpectrum", align 8
  %7 = getelementptr inbounds nuw i8, ptr %0, i64 160
  %8 = load float, ptr %7, align 8, !tbaa !128
  %9 = getelementptr inbounds nuw i8, ptr %0, i64 152
  %10 = load ptr, ptr %9, align 8, !tbaa !130
  call void @llvm.lifetime.start.p0(i64 16, ptr nonnull %6)
  call void @llvm.memset.p0.i64(ptr noundef nonnull align 8 dereferenceable(16) %6, i8 0, i64 16, i1 false), !tbaa !77
  %11 = getelementptr inbounds nuw i8, ptr %10, i64 32
  %12 = load i64, ptr %11, align 8
  %13 = getelementptr inbounds nuw i8, ptr %10, i64 16
  %14 = load ptr, ptr %13, align 8
  br label %15

15:                                               ; preds = %28, %2
  %indvars.iv.i = phi i64 [ 0, %2 ], [ %indvars.iv.next.i, %28 ]
  %16 = getelementptr inbounds nuw [4 x float], ptr %1, i64 0, i64 %indvars.iv.i
  %17 = load float, ptr %16, align 4, !tbaa !77
  %18 = tail call noundef i64 @lroundf(float noundef %17) #38, !tbaa !86
  %19 = load i32, ptr %10, align 8, !tbaa !72
  %20 = trunc i64 %18 to i32
  %21 = sub i32 %20, %19
  %22 = icmp slt i32 %21, 0
  br i1 %22, label %28, label %23

23:                                               ; preds = %15
  %24 = zext nneg i32 %21 to i64
  %.not.i = icmp ugt i64 %12, %24
  br i1 %.not.i, label %25, label %28

25:                                               ; preds = %23
  %26 = getelementptr inbounds nuw float, ptr %14, i64 %24
  %27 = load float, ptr %26, align 4, !tbaa !77
  br label %28

28:                                               ; preds = %25, %23, %15
  %.sink.i = phi float [ %27, %25 ], [ 0.000000e+00, %23 ], [ 0.000000e+00, %15 ]
  %29 = getelementptr inbounds nuw [4 x float], ptr %6, i64 0, i64 %indvars.iv.i
  store float %.sink.i, ptr %29, align 4, !tbaa !77
  %indvars.iv.next.i = add nuw nsw i64 %indvars.iv.i, 1
  %exitcond.not.i = icmp eq i64 %indvars.iv.next.i, 4
  br i1 %exitcond.not.i, label %_ZNK4pbrt22DenselySampledSpectrum6SampleERKNS_18SampledWavelengthsE.exit, label %15, !llvm.loop !111

_ZNK4pbrt22DenselySampledSpectrum6SampleERKNS_18SampledWavelengthsE.exit: ; preds = %28
  %.fca.0.load.i = load <2 x float>, ptr %6, align 8
  %.fca.1.gep.i = getelementptr inbounds nuw i8, ptr %6, i64 8
  %.fca.1.load.i = load <2 x float>, ptr %.fca.1.gep.i, align 8
  call void @llvm.lifetime.end.p0(i64 16, ptr nonnull %6)
  call void @llvm.lifetime.start.p0(i64 16, ptr nonnull %5)
  store <2 x float> %.fca.0.load.i, ptr %5, align 8
  %.sroa.4.0..sroa_idx = getelementptr inbounds nuw i8, ptr %5, i64 8
  store <2 x float> %.fca.1.load.i, ptr %.sroa.4.0..sroa_idx, align 8, !tbaa !16
  br label %30

30:                                               ; preds = %30, %_ZNK4pbrt22DenselySampledSpectrum6SampleERKNS_18SampledWavelengthsE.exit
  %indvars.iv.i.i = phi i64 [ 0, %_ZNK4pbrt22DenselySampledSpectrum6SampleERKNS_18SampledWavelengthsE.exit ], [ %indvars.iv.next.i.i, %30 ]
  %31 = getelementptr inbounds nuw [4 x float], ptr %5, i64 0, i64 %indvars.iv.i.i
  %32 = load float, ptr %31, align 4, !tbaa !77
  %33 = fmul float %8, %32
  store float %33, ptr %31, align 4, !tbaa !77
  %indvars.iv.next.i.i = add nuw nsw i64 %indvars.iv.i.i, 1
  %exitcond.not.i.i = icmp eq i64 %indvars.iv.next.i.i, 4
  br i1 %exitcond.not.i.i, label %_ZN4pbrtmlEfRKNS_15SampledSpectrumE.exit, label %30, !llvm.loop !112

_ZN4pbrtmlEfRKNS_15SampledSpectrumE.exit:         ; preds = %30
  %.fca.0.load.i.i = load <2 x float>, ptr %5, align 8
  %.fca.1.load.i.i = load <2 x float>, ptr %.sroa.4.0..sroa_idx, align 8
  call void @llvm.lifetime.end.p0(i64 16, ptr nonnull %5)
  call void @llvm.lifetime.start.p0(i64 16, ptr nonnull %4)
  store <2 x float> %.fca.0.load.i.i, ptr %4, align 8
  %.sroa.419.0..sroa_idx = getelementptr inbounds nuw i8, ptr %4, i64 8
  store <2 x float> %.fca.1.load.i.i, ptr %.sroa.419.0..sroa_idx, align 8, !tbaa !16
  br label %34

34:                                               ; preds = %34, %_ZN4pbrtmlEfRKNS_15SampledSpectrumE.exit
  %indvars.iv.i1 = phi i64 [ 0, %_ZN4pbrtmlEfRKNS_15SampledSpectrumE.exit ], [ %indvars.iv.next.i2, %34 ]
  %35 = getelementptr inbounds nuw [4 x float], ptr %4, i64 0, i64 %indvars.iv.i1
  %36 = load float, ptr %35, align 4, !tbaa !77
  %37 = fmul float %36, 0x400921FB60000000
  store float %37, ptr %35, align 4, !tbaa !77
  %indvars.iv.next.i2 = add nuw nsw i64 %indvars.iv.i1, 1
  %exitcond.not.i3 = icmp eq i64 %indvars.iv.next.i2, 4
  br i1 %exitcond.not.i3, label %_ZNK4pbrt15SampledSpectrummlEf.exit, label %34, !llvm.loop !112

_ZNK4pbrt15SampledSpectrummlEf.exit:              ; preds = %34
  %.fca.0.load.i4 = load <2 x float>, ptr %4, align 8
  %.fca.1.load.i7 = load <2 x float>, ptr %.sroa.419.0..sroa_idx, align 8
  call void @llvm.lifetime.end.p0(i64 16, ptr nonnull %4)
  %38 = getelementptr inbounds nuw i8, ptr %0, i64 176
  %39 = load float, ptr %38, align 8, !tbaa !131
  %40 = fmul float %39, %39
  call void @llvm.lifetime.start.p0(i64 16, ptr nonnull %3)
  store <2 x float> %.fca.0.load.i4, ptr %3, align 8
  %.sroa.421.0..sroa_idx = getelementptr inbounds nuw i8, ptr %3, i64 8
  store <2 x float> %.fca.1.load.i7, ptr %.sroa.421.0..sroa_idx, align 8, !tbaa !16
  br label %41

41:                                               ; preds = %41, %_ZNK4pbrt15SampledSpectrummlEf.exit
  %indvars.iv.i9 = phi i64 [ 0, %_ZNK4pbrt15SampledSpectrummlEf.exit ], [ %indvars.iv.next.i10, %41 ]
  %42 = getelementptr inbounds nuw [4 x float], ptr %3, i64 0, i64 %indvars.iv.i9
  %43 = load float, ptr %42, align 4, !tbaa !77
  %44 = fmul float %40, %43
  store float %44, ptr %42, align 4, !tbaa !77
  %indvars.iv.next.i10 = add nuw nsw i64 %indvars.iv.i9, 1
  %exitcond.not.i11 = icmp eq i64 %indvars.iv.next.i10, 4
  br i1 %exitcond.not.i11, label %_ZNK4pbrt15SampledSpectrummlEf.exit17, label %41, !llvm.loop !112

_ZNK4pbrt15SampledSpectrummlEf.exit17:            ; preds = %41
  %.fca.0.load.i12 = load <2 x float>, ptr %3, align 8
  %.fca.0.insert.i13 = insertvalue { <2 x float>, <2 x float> } poison, <2 x float> %.fca.0.load.i12, 0
  %.fca.1.load.i15 = load <2 x float>, ptr %.sroa.421.0..sroa_idx, align 8
  %.fca.1.insert.i16 = insertvalue { <2 x float>, <2 x float> } %.fca.0.insert.i13, <2 x float> %.fca.1.load.i15, 1
  call void @llvm.lifetime.end.p0(i64 16, ptr nonnull %3)
  ret { <2 x float>, <2 x float> } %.fca.1.insert.i16
}